; Function Attrs: inlinehint nofree nounwind memory(write, argmem: none, inaccessiblemem: readwrite) uwtable
define internal fastcc noalias noundef ptr @pmix_bfrops_base_tma_device_distance_create(i64 noundef %0) unnamed_addr #14 {
  %2 = icmp eq i64 %0, 0
  br i1 %2, label %.loopexit, label %3

3:                                                ; preds = %1
  %4 = shl i64 %0, 5
  %5 = tail call noalias noundef ptr @malloc(i64 noundef %4) #45
  %.not = icmp eq ptr %5, null
  br i1 %.not, label %.loopexit, label %.preheader, !prof !77

.preheader:                                       ; preds = %3, %.preheader
  %.01 = phi i64 [ %9, %.preheader ], [ 0, %3 ]
  %6 = getelementptr inbounds nuw %struct.pmix_device_distance, ptr %5, i64 %.01
  %7 = getelementptr inbounds nuw i8, ptr %6, i64 24
  tail call void @llvm.memset.p0.i64(ptr noundef nonnull align 8 dereferenceable(32) %6, i8 0, i64 32, i1 false)
  store i16 -1, ptr %7, align 8, !tbaa !89
  %8 = getelementptr inbounds nuw i8, ptr %6, i64 26
  store i16 -1, ptr %8, align 2, !tbaa !90
  %9 = add nuw i64 %.01, 1
  %exitcond.not = icmp eq i64 %9, %0
  br i1 %exitcond.not, label %.loopexit, label %.preheader, !llvm.loop !91

.loopexit:                                        ; preds = %.preheader, %3, %1
  %.011 = phi ptr [ null, %1 ], [ null, %3 ], [ %5, %.preheader ]
  ret ptr %.011
}